; ModuleID = '37/1040.c'
source_filename = "37/1040.c"
target datalayout = "e-m:e-p270:32:32-p271:32:32-p272:64:64-i64:64-f80:128-n8:16:32:64-S128"
target triple = "x86_64-pc-linux-gnu"

@.str = private unnamed_addr constant [3 x i8] c"%d\00", align 1
@.str.1 = private unnamed_addr constant [3 x i8] c"%s\00", align 1
@.str.2 = private unnamed_addr constant [4 x i8] c"%c\0A\00", align 1
@.str.3 = private unnamed_addr constant [4 x i8] c"no\0A\00", align 1

; Function Attrs: noinline nounwind uwtable
define dso_local void @main() #0 {
  %1 = alloca i32, align 4
  %2 = alloca i32, align 4
  %3 = alloca i32, align 4
  %4 = alloca i32, align 4
  %5 = alloca i32, align 4
  %6 = alloca [100000 x i8], align 16
  %7 = alloca i8*, align 8
  %8 = alloca [26 x i32], align 16
  %9 = alloca i32*, align 8
  %10 = call i32 (i8*, ...) @__isoc99_scanf(i8* getelementptr inbounds ([3 x i8], [3 x i8]* @.str, i64 0, i64 0), i32* %1)
  %11 = getelementptr inbounds [100000 x i8], [100000 x i8]* %6, i64 0, i64 0
  %12 = call i32 (i8*, ...) bitcast (i32 (...)* @gets to i32 (i8*, ...)*)(i8* %11)
  store i32 0, i32* %2, align 4
  br label %13

13:                                               ; preds = %125, %0
  %14 = load i32, i32* %2, align 4
  %15 = load i32, i32* %1, align 4
  %16 = icmp slt i32 %14, %15
  br i1 %16, label %17, label %128

17:                                               ; preds = %13
  store i32 0, i32* %3, align 4
  br label %18

18:                                               ; preds = %26, %17
  %19 = load i32, i32* %3, align 4
  %20 = icmp slt i32 %19, 26
  br i1 %20, label %21, label %29

21:                                               ; preds = %18
  %22 = getelementptr inbounds [26 x i32], [26 x i32]* %8, i64 0, i64 0
  %23 = load i32, i32* %3, align 4
  %24 = sext i32 %23 to i64
  %25 = getelementptr inbounds i32, i32* %22, i64 %24
  store i32 0, i32* %25, align 4
  br label %26

26:                                               ; preds = %21
  %27 = load i32, i32* %3, align 4
  %28 = add nsw i32 %27, 1
  store i32 %28, i32* %3, align 4
  br label %18

29:                                               ; preds = %18
  store i32 0, i32* %3, align 4
  %30 = getelementptr inbounds [100000 x i8], [100000 x i8]* %6, i64 0, i64 0
  %31 = call i32 (i8*, ...) @__isoc99_scanf(i8* getelementptr inbounds ([3 x i8], [3 x i8]* @.str.1, i64 0, i64 0), i8* %30)
  br label %32

32:                                               ; preds = %65, %29
  %33 = getelementptr inbounds [100000 x i8], [100000 x i8]* %6, i64 0, i64 0
  %34 = load i32, i32* %3, align 4
  %35 = sext i32 %34 to i64
  %36 = getelementptr inbounds i8, i8* %33, i64 %35
  %37 = load i8, i8* %36, align 1
  %38 = sext i8 %37 to i32
  %39 = icmp ne i32 %38, 0
  br i1 %39, label %40, label %68

40:                                               ; preds = %32
  store i32 0, i32* %4, align 4
  br label %41

41:                                               ; preds = %62, %40
  %42 = load i32, i32* %4, align 4
  %43 = icmp slt i32 %42, 26
  br i1 %43, label %44, label %65

44:                                               ; preds = %41
  %45 = getelementptr inbounds [100000 x i8], [100000 x i8]* %6, i64 0, i64 0
  %46 = load i32, i32* %3, align 4
  %47 = sext i32 %46 to i64
  %48 = getelementptr inbounds i8, i8* %45, i64 %47
  %49 = load i8, i8* %48, align 1
  %50 = sext i8 %49 to i32
  %51 = load i32, i32* %4, align 4
  %52 = add nsw i32 97, %51
  %53 = icmp eq i32 %50, %52
  br i1 %53, label %54, label %61

54:                                               ; preds = %44
  %55 = getelementptr inbounds [26 x i32], [26 x i32]* %8, i64 0, i64 0
  %56 = load i32, i32* %4, align 4
  %57 = sext i32 %56 to i64
  %58 = getelementptr inbounds i32, i32* %55, i64 %57
  %59 = load i32, i32* %58, align 4
  %60 = add nsw i32 %59, 1
  store i32 %60, i32* %58, align 4
  br label %65

61:                                               ; preds = %44
  br label %62

62:                                               ; preds = %61
  %63 = load i32, i32* %4, align 4
  %64 = add nsw i32 %63, 1
  store i32 %64, i32* %4, align 4
  br label %41

65:                                               ; preds = %54, %41
  %66 = load i32, i32* %3, align 4
  %67 = add nsw i32 %66, 1
  store i32 %67, i32* %3, align 4
  br label %32

68:                                               ; preds = %32
  store i32 0, i32* %5, align 4
  store i32 0, i32* %3, align 4
  br label %69

69:                                               ; preds = %116, %68
  %70 = getelementptr inbounds [100000 x i8], [100000 x i8]* %6, i64 0, i64 0
  %71 = load i32, i32* %3, align 4
  %72 = sext i32 %71 to i64
  %73 = getelementptr inbounds i8, i8* %70, i64 %72
  %74 = load i8, i8* %73, align 1
  %75 = sext i8 %74 to i32
  %76 = icmp ne i32 %75, 0
  br i1 %76, label %77, label %119

77:                                               ; preds = %69
  store i32 0, i32* %4, align 4
  br label %78

78:                                               ; preds = %108, %77
  %79 = load i32, i32* %4, align 4
  %80 = icmp slt i32 %79, 26
  br i1 %80, label %81, label %111

81:                                               ; preds = %78
  %82 = getelementptr inbounds [100000 x i8], [100000 x i8]* %6, i64 0, i64 0
  %83 = load i32, i32* %3, align 4
  %84 = sext i32 %83 to i64
  %85 = getelementptr inbounds i8, i8* %82, i64 %84
  %86 = load i8, i8* %85, align 1
  %87 = sext i8 %86 to i32
  %88 = load i32, i32* %4, align 4
  %89 = add nsw i32 97, %88
  %90 = icmp eq i32 %87, %89
  br i1 %90, label %91, label %107

91:                                               ; preds = %81
  %92 = getelementptr inbounds [26 x i32], [26 x i32]* %8, i64 0, i64 0
  %93 = load i32, i32* %4, align 4
  %94 = sext i32 %93 to i64
  %95 = getelementptr inbounds i32, i32* %92, i64 %94
  %96 = load i32, i32* %95, align 4
  %97 = icmp eq i32 %96, 1
  br i1 %97, label %98, label %106

98:                                               ; preds = %91
  %99 = getelementptr inbounds [100000 x i8], [100000 x i8]* %6, i64 0, i64 0
  %100 = load i32, i32* %3, align 4
  %101 = sext i32 %100 to i64
  %102 = getelementptr inbounds i8, i8* %99, i64 %101
  %103 = load i8, i8* %102, align 1
  %104 = sext i8 %103 to i32
  %105 = call i32 (i8*, ...) @printf(i8* getelementptr inbounds ([4 x i8], [4 x i8]* @.str.2, i64 0, i64 0), i32 %104)
  store i32 1, i32* %5, align 4
  br label %106

106:                                              ; preds = %98, %91
  br label %111

107:                                              ; preds = %81
  br label %108

108:                                              ; preds = %107
  %109 = load i32, i32* %4, align 4
  %110 = add nsw i32 %109, 1
  store i32 %110, i32* %4, align 4
  br label %78

111:                                              ; preds = %106, %78
  %112 = load i32, i32* %5, align 4
  %113 = icmp eq i32 %112, 1
  br i1 %113, label %114, label %115

114:                                              ; preds = %111
  br label %119

115:                                              ; preds = %111
  br label %116

116:                                              ; preds = %115
  %117 = load i32, i32* %3, align 4
  %118 = add nsw i32 %117, 1
  store i32 %118, i32* %3, align 4
  br label %69

119:                                              ; preds = %114, %69
  %120 = load i32, i32* %5, align 4
  %121 = icmp eq i32 %120, 0
  br i1 %121, label %122, label %124

122:                                              ; preds = %119
  %123 = call i32 (i8*, ...) @printf(i8* getelementptr inbounds ([4 x i8], [4 x i8]* @.str.3, i64 0, i64 0))
  br label %124

124:                                              ; preds = %122, %119
  br label %125

125:                                              ; preds = %124
  %126 = load i32, i32* %2, align 4
  %127 = add nsw i32 %126, 1
  store i32 %127, i32* %2, align 4
  br label %13

128:                                              ; preds = %13
  ret void
}

declare dso_local i32 @__isoc99_scanf(i8*, ...) #1

declare dso_local i32 @gets(...) #1

declare dso_local i32 @printf(i8*, ...) #1


!llvm.module.flags = !{!0}
!llvm.ident = !{!1}

!0 = !{i32 1, !"wchar_size", i32 4}
!1 = !{!"clang version 10.0.0-4ubuntu1 "}
